; ModuleID = 'source-C-CXX/11/225.cpp'
source_filename = "source-C-CXX/11/225.cpp"
target datalayout = "e-m:e-p270:32:32-p271:32:32-p272:64:64-i64:64-f80:128-n8:16:32:64-S128"
target triple = "x86_64-pc-linux-gnu"

%"class.std::ios_base::Init" = type { i8 }
%"class.std::basic_istream" = type { i32 (...)**, i64, %"class.std::basic_ios" }
%"class.std::basic_ios" = type { %"class.std::ios_base", %"class.std::basic_ostream"*, i8, i8, %"class.std::basic_streambuf"*, %"class.std::ctype"*, %"class.std::num_put"*, %"class.std::num_get"* }
%"class.std::ios_base" = type { i32 (...)**, i64, i64, i32, i32, i32, %"struct.std::ios_base::_Callback_list"*, %"struct.std::ios_base::_Words", [8 x %"struct.std::ios_base::_Words"], i32, %"struct.std::ios_base::_Words"*, %"class.std::locale" }
%"struct.std::ios_base::_Callback_list" = type { %"struct.std::ios_base::_Callback_list"*, void (i32, %"class.std::ios_base"*, i32)*, i32, i32 }
%"struct.std::ios_base::_Words" = type { i8*, i64 }
%"class.std::locale" = type { %"class.std::locale::_Impl"* }
%"class.std::locale::_Impl" = type { i32, %"class.std::locale::facet"**, i64, %"class.std::locale::facet"**, i8** }
%"class.std::locale::facet" = type <{ i32 (...)**, i32, [4 x i8] }>
%"class.std::basic_ostream" = type { i32 (...)**, %"class.std::basic_ios" }
%"class.std::basic_streambuf" = type { i32 (...)**, i8*, i8*, i8*, i8*, i8*, i8*, %"class.std::locale" }
%"class.std::ctype" = type <{ %"class.std::locale::facet.base", [4 x i8], %struct.__locale_struct*, i8, [7 x i8], i32*, i32*, i16*, i8, [256 x i8], [256 x i8], i8, [6 x i8] }>
%"class.std::locale::facet.base" = type <{ i32 (...)**, i32 }>
%struct.__locale_struct = type { [13 x %struct.__locale_data*], i16*, i32*, i32*, [13 x i8*] }
%struct.__locale_data = type opaque
%"class.std::num_put" = type { %"class.std::locale::facet.base", [4 x i8] }
%"class.std::num_get" = type { %"class.std::locale::facet.base", [4 x i8] }

@_ZStL8__ioinit = internal global %"class.std::ios_base::Init" zeroinitializer, align 1
@__dso_handle = external hidden global i8
@_ZSt3cin = external global %"class.std::basic_istream", align 8
@_ZSt4cout = external global %"class.std::basic_ostream", align 8
@llvm.global_ctors = appending global [1 x { i32, void ()*, i8* }] [{ i32, void ()*, i8* } { i32 65535, void ()* @_GLOBAL__sub_I_225.cpp, i8* null }]

declare void @_ZNSt8ios_base4InitC1Ev(%"class.std::ios_base::Init"* nonnull align 1 dereferenceable(1)) unnamed_addr #0

; Function Attrs: nounwind
declare void @_ZNSt8ios_base4InitD1Ev(%"class.std::ios_base::Init"* nonnull align 1 dereferenceable(1)) unnamed_addr #1

; Function Attrs: nofree nounwind
declare i32 @__cxa_atexit(void (i8*)*, i8*, i8*) local_unnamed_addr #2

; Function Attrs: mustprogress nofree norecurse nosync nounwind readonly sspstrong uwtable willreturn
define dso_local i32 @_Z5iFindPii(i32* nocapture readonly %0, i32 %1) local_unnamed_addr #3 {
  %3 = bitcast i32* %0 to <8 x i32>*
  %4 = load <8 x i32>, <8 x i32>* %3, align 4, !tbaa !5
  %5 = insertelement <8 x i32> poison, i32 %1, i32 0
  %6 = shufflevector <8 x i32> %5, <8 x i32> poison, <8 x i32> zeroinitializer
  %7 = icmp eq <8 x i32> %4, %6
  %8 = getelementptr inbounds i32, i32* %0, i64 8
  %9 = bitcast i32* %8 to <4 x i32>*
  %10 = load <4 x i32>, <4 x i32>* %9, align 4, !tbaa !5
  %11 = insertelement <4 x i32> poison, i32 %1, i32 0
  %12 = shufflevector <4 x i32> %11, <4 x i32> poison, <4 x i32> zeroinitializer
  %13 = icmp eq <4 x i32> %10, %12
  %14 = getelementptr inbounds i32, i32* %0, i64 12
  %15 = load i32, i32* %14, align 4, !tbaa !5
  %16 = icmp eq i32 %15, %1
  %17 = zext i1 %16 to i32
  %18 = getelementptr inbounds i32, i32* %0, i64 13
  %19 = load i32, i32* %18, align 4, !tbaa !5
  %20 = icmp eq i32 %19, %1
  %21 = zext i1 %20 to i32
  %22 = getelementptr inbounds i32, i32* %0, i64 14
  %23 = load i32, i32* %22, align 4, !tbaa !5
  %24 = icmp eq i32 %23, %1
  %25 = zext i1 %24 to i32
  %26 = bitcast <8 x i1> %7 to i8
  %27 = call i8 @llvm.ctpop.i8(i8 %26), !range !9
  %28 = zext i8 %27 to i32
  %29 = bitcast <4 x i1> %13 to i4
  %30 = call i4 @llvm.ctpop.i4(i4 %29), !range !10
  %31 = zext i4 %30 to i32
  %32 = add nuw nsw i32 %28, %31
  %33 = add nuw nsw i32 %32, %17
  %34 = add nuw nsw i32 %33, %21
  %35 = add nuw nsw i32 %34, %25
  ret i32 %35
}

; Function Attrs: argmemonly mustprogress nofree nosync nounwind willreturn
declare void @llvm.lifetime.start.p0i8(i64 immarg, i8* nocapture) #4

; Function Attrs: argmemonly mustprogress nofree nosync nounwind willreturn
declare void @llvm.lifetime.end.p0i8(i64 immarg, i8* nocapture) #4

; Function Attrs: mustprogress norecurse sspstrong uwtable
define dso_local i32 @main() local_unnamed_addr #5 {
  %1 = alloca [15 x i32], align 16
  %2 = bitcast [15 x i32]* %1 to i8*
  %3 = alloca i32, align 4
  call void @llvm.lifetime.start.p0i8(i64 60, i8* nonnull %2) #10
  %4 = bitcast i32* %3 to i8*
  call void @llvm.lifetime.start.p0i8(i64 4, i8* nonnull %4) #10
  call void @llvm.memset.p0i8.i64(i8* noundef nonnull align 16 dereferenceable(60) %2, i8 -1, i64 60, i1 false)
  %5 = getelementptr inbounds [15 x i32], [15 x i32]* %1, i64 0, i64 8
  %6 = getelementptr inbounds [15 x i32], [15 x i32]* %1, i64 0, i64 12
  %7 = getelementptr inbounds [15 x i32], [15 x i32]* %1, i64 0, i64 13
  %8 = getelementptr inbounds [15 x i32], [15 x i32]* %1, i64 0, i64 14
  %9 = bitcast [15 x i32]* %1 to <8 x i32>*
  %10 = bitcast i32* %5 to <4 x i32>*
  br label %11

11:                                               ; preds = %90, %0
  %12 = phi i32 [ 0, %0 ], [ %91, %90 ]
  %13 = call nonnull align 8 dereferenceable(16) %"class.std::basic_istream"* @_ZNSirsERi(%"class.std::basic_istream"* nonnull align 8 dereferenceable(16) @_ZSt3cin, i32* nonnull align 4 dereferenceable(4) %3)
  %14 = load i32, i32* %3, align 4, !tbaa !5
  switch i32 %14, label %22 [
    i32 -1, label %92
    i32 0, label %15
  ]

15:                                               ; preds = %11
  %16 = load <8 x i32>, <8 x i32>* %9, align 16, !tbaa !5
  %17 = load <4 x i32>, <4 x i32>* %10, align 16, !tbaa !5
  %18 = load i32, i32* %6, align 16, !tbaa !5
  %19 = load i32, i32* %7, align 4, !tbaa !5
  %20 = load i32, i32* %8, align 8, !tbaa !5
  %21 = extractelement <8 x i32> %16, i32 0
  br label %26

22:                                               ; preds = %11
  %23 = sext i32 %12 to i64
  %24 = getelementptr inbounds [15 x i32], [15 x i32]* %1, i64 0, i64 %23
  store i32 %14, i32* %24, align 4, !tbaa !5
  %25 = add nsw i32 %12, 1
  br label %90

26:                                               ; preds = %56, %15
  %27 = phi i32 [ %21, %15 ], [ %58, %56 ]
  %28 = phi i64 [ 0, %15 ], [ %54, %56 ]
  %29 = phi i32 [ 0, %15 ], [ %53, %56 ]
  %30 = shl nsw i32 %27, 1
  %31 = insertelement <8 x i32> poison, i32 %30, i32 0
  %32 = shufflevector <8 x i32> %31, <8 x i32> poison, <8 x i32> zeroinitializer
  %33 = icmp eq <8 x i32> %16, %32
  %34 = insertelement <4 x i32> poison, i32 %30, i32 0
  %35 = shufflevector <4 x i32> %34, <4 x i32> poison, <4 x i32> zeroinitializer
  %36 = icmp eq <4 x i32> %17, %35
  %37 = icmp eq i32 %18, %30
  %38 = zext i1 %37 to i32
  %39 = icmp eq i32 %19, %30
  %40 = zext i1 %39 to i32
  %41 = icmp eq i32 %20, %30
  %42 = zext i1 %41 to i32
  %43 = bitcast <8 x i1> %33 to i8
  %44 = call i8 @llvm.ctpop.i8(i8 %43), !range !9
  %45 = zext i8 %44 to i32
  %46 = bitcast <4 x i1> %36 to i4
  %47 = call i4 @llvm.ctpop.i4(i4 %46), !range !10
  %48 = zext i4 %47 to i32
  %49 = add nuw nsw i32 %45, %48
  %50 = add nuw nsw i32 %49, %38
  %51 = add nuw nsw i32 %50, %40
  %52 = add nuw nsw i32 %51, %42
  %53 = add i32 %52, %29
  %54 = add nuw nsw i64 %28, 1
  %55 = icmp eq i64 %54, 15
  br i1 %55, label %59, label %56, !llvm.loop !11

56:                                               ; preds = %26
  %57 = getelementptr inbounds [15 x i32], [15 x i32]* %1, i64 0, i64 %54
  %58 = load i32, i32* %57, align 4, !tbaa !5
  br label %26

59:                                               ; preds = %26
  %60 = call nonnull align 8 dereferenceable(8) %"class.std::basic_ostream"* @_ZNSolsEi(%"class.std::basic_ostream"* nonnull align 8 dereferenceable(8) @_ZSt4cout, i32 %53)
  %61 = bitcast %"class.std::basic_ostream"* %60 to i8**
  %62 = load i8*, i8** %61, align 8, !tbaa !13
  %63 = getelementptr i8, i8* %62, i64 -24
  %64 = bitcast i8* %63 to i64*
  %65 = load i64, i64* %64, align 8
  %66 = bitcast %"class.std::basic_ostream"* %60 to i8*
  %67 = add nsw i64 %65, 240
  %68 = getelementptr inbounds i8, i8* %66, i64 %67
  %69 = bitcast i8* %68 to %"class.std::ctype"**
  %70 = load %"class.std::ctype"*, %"class.std::ctype"** %69, align 8, !tbaa !15
  %71 = icmp eq %"class.std::ctype"* %70, null
  br i1 %71, label %72, label %73

72:                                               ; preds = %59
  call void @_ZSt16__throw_bad_castv() #11
  unreachable

73:                                               ; preds = %59
  %74 = getelementptr inbounds %"class.std::ctype", %"class.std::ctype"* %70, i64 0, i32 8
  %75 = load i8, i8* %74, align 8, !tbaa !19
  %76 = icmp eq i8 %75, 0
  br i1 %76, label %80, label %77

77:                                               ; preds = %73
  %78 = getelementptr inbounds %"class.std::ctype", %"class.std::ctype"* %70, i64 0, i32 9, i64 10
  %79 = load i8, i8* %78, align 1, !tbaa !21
  br label %86

80:                                               ; preds = %73
  call void @_ZNKSt5ctypeIcE13_M_widen_initEv(%"class.std::ctype"* nonnull align 8 dereferenceable(570) %70)
  %81 = bitcast %"class.std::ctype"* %70 to i8 (%"class.std::ctype"*, i8)***
  %82 = load i8 (%"class.std::ctype"*, i8)**, i8 (%"class.std::ctype"*, i8)*** %81, align 8, !tbaa !13
  %83 = getelementptr inbounds i8 (%"class.std::ctype"*, i8)*, i8 (%"class.std::ctype"*, i8)** %82, i64 6
  %84 = load i8 (%"class.std::ctype"*, i8)*, i8 (%"class.std::ctype"*, i8)** %83, align 8
  %85 = call signext i8 %84(%"class.std::ctype"* nonnull align 8 dereferenceable(570) %70, i8 signext 10)
  br label %86

86:                                               ; preds = %77, %80
  %87 = phi i8 [ %79, %77 ], [ %85, %80 ]
  %88 = call nonnull align 8 dereferenceable(8) %"class.std::basic_ostream"* @_ZNSo3putEc(%"class.std::basic_ostream"* nonnull align 8 dereferenceable(8) %60, i8 signext %87)
  %89 = call nonnull align 8 dereferenceable(8) %"class.std::basic_ostream"* @_ZNSo5flushEv(%"class.std::basic_ostream"* nonnull align 8 dereferenceable(8) %88)
  call void @llvm.memset.p0i8.i64(i8* noundef nonnull align 16 dereferenceable(60) %2, i8 -1, i64 60, i1 false)
  br label %90

90:                                               ; preds = %86, %22
  %91 = phi i32 [ %25, %22 ], [ 0, %86 ]
  br label %11, !llvm.loop !22

92:                                               ; preds = %11
  call void @llvm.lifetime.end.p0i8(i64 4, i8* nonnull %4) #10
  call void @llvm.lifetime.end.p0i8(i64 60, i8* nonnull %2) #10
  ret i32 0
}

declare nonnull align 8 dereferenceable(16) %"class.std::basic_istream"* @_ZNSirsERi(%"class.std::basic_istream"* nonnull align 8 dereferenceable(16), i32* nonnull align 4 dereferenceable(4)) local_unnamed_addr #0

declare nonnull align 8 dereferenceable(8) %"class.std::basic_ostream"* @_ZNSolsEi(%"class.std::basic_ostream"* nonnull align 8 dereferenceable(8), i32) local_unnamed_addr #0

declare nonnull align 8 dereferenceable(8) %"class.std::basic_ostream"* @_ZNSo3putEc(%"class.std::basic_ostream"* nonnull align 8 dereferenceable(8), i8 signext) local_unnamed_addr #0

declare nonnull align 8 dereferenceable(8) %"class.std::basic_ostream"* @_ZNSo5flushEv(%"class.std::basic_ostream"* nonnull align 8 dereferenceable(8)) local_unnamed_addr #0

; Function Attrs: noreturn
declare void @_ZSt16__throw_bad_castv() local_unnamed_addr #6

declare void @_ZNKSt5ctypeIcE13_M_widen_initEv(%"class.std::ctype"* nonnull align 8 dereferenceable(570)) local_unnamed_addr #0

; Function Attrs: sspstrong uwtable
define internal void @_GLOBAL__sub_I_225.cpp() #7 section ".text.startup" {
  tail call void @_ZNSt8ios_base4InitC1Ev(%"class.std::ios_base::Init"* nonnull align 1 dereferenceable(1) @_ZStL8__ioinit)
  %1 = tail call i32 @__cxa_atexit(void (i8*)* bitcast (void (%"class.std::ios_base::Init"*)* @_ZNSt8ios_base4InitD1Ev to void (i8*)*), i8* getelementptr inbounds (%"class.std::ios_base::Init", %"class.std::ios_base::Init"* @_ZStL8__ioinit, i64 0, i32 0), i8* nonnull @__dso_handle) #10
  ret void
}

; Function Attrs: argmemonly nofree nounwind willreturn writeonly
declare void @llvm.memset.p0i8.i64(i8* nocapture writeonly, i8, i64, i1 immarg) #8

; Function Attrs: nofree nosync nounwind readnone speculatable willreturn
declare i8 @llvm.ctpop.i8(i8) #9

; Function Attrs: nofree nosync nounwind readnone speculatable willreturn
declare i4 @llvm.ctpop.i4(i4) #9


!llvm.module.flags = !{!0, !1, !2, !3}
!llvm.ident = !{!4}

!0 = !{i32 1, !"wchar_size", i32 4}
!1 = !{i32 7, !"PIC Level", i32 2}
!2 = !{i32 7, !"PIE Level", i32 2}
!3 = !{i32 7, !"uwtable", i32 1}
!4 = !{!"clang version 13.0.0"}
!5 = !{!6, !6, i64 0}
!6 = !{!"int", !7, i64 0}
!7 = !{!"omnipotent char", !8, i64 0}
!8 = !{!"Simple C++ TBAA"}
!9 = !{i8 0, i8 9}
!10 = !{i4 0, i4 5}
!11 = distinct !{!11, !12}
!12 = !{!"llvm.loop.mustprogress"}
!13 = !{!14, !14, i64 0}
!14 = !{!"vtable pointer", !8, i64 0}
!15 = !{!16, !17, i64 240}
!16 = !{!"_ZTSSt9basic_iosIcSt11char_traitsIcEE", !17, i64 216, !7, i64 224, !18, i64 225, !17, i64 232, !17, i64 240, !17, i64 248, !17, i64 256}
!17 = !{!"any pointer", !7, i64 0}
!18 = !{!"bool", !7, i64 0}
!19 = !{!20, !7, i64 56}
!20 = !{!"_ZTSSt5ctypeIcE", !17, i64 16, !18, i64 24, !17, i64 32, !17, i64 40, !17, i64 48, !7, i64 56, !7, i64 57, !7, i64 313, !7, i64 569}
!21 = !{!7, !7, i64 0}
!22 = distinct !{!22, !12}
